target datalayout = "e-m:e-p270:32:32-p271:32:32-p272:64:64-i64:64-i128:128-f80:128-n8:16:32:64-S128"
target triple = "x86_64-unknown-linux-gnu"

%"class.llvh::ilist_node_impl" = type { %"class.llvh::ilist_node_base" }
%"class.llvh::ilist_node_base" = type { ptr, ptr }
%"class.llvh::SMLoc" = type { ptr }
%"class.hermes::Identifier" = type { ptr }
%"class.llvh::SMRange" = type { %"class.llvh::SMLoc", %"class.llvh::SMLoc" }
%"class.hermes::irgen::ESTreeIRGen" = type { ptr, %"class.hermes::IRBuilder", %"class.hermes::IRInstrument", ptr, ptr, ptr, ptr, %"class.hermes::ScopedHashTable", %"class.std::shared_ptr", %"class.hermes::Identifier", %"class.hermes::Identifier", %"class.hermes::Identifier", ptr, ptr, %"class.llvh::DenseMap.2" }
%"class.hermes::IRBuilder" = type { ptr, %"class.llvh::ilist_iterator.0", ptr, %"class.llvh::SMLoc", ptr }
%"class.llvh::ilist_iterator.0" = type { ptr }
%"class.hermes::IRInstrument" = type { i8 }
%"class.hermes::ScopedHashTable" = type { %"class.llvh::DenseMap", ptr }
%"class.llvh::DenseMap" = type <{ ptr, i32, i32, i32, [4 x i8] }>
%"class.std::shared_ptr" = type { %"class.std::__shared_ptr" }
%"class.std::__shared_ptr" = type { ptr, %"class.std::__shared_count" }
%"class.std::__shared_count" = type { ptr }
%"class.llvh::DenseMap.2" = type <{ ptr, i32, i32, i32, [4 x i8] }>
%"class.hermes::ESTree::Node" = type { %"class.llvh::ilist_node", i32, i32, %"class.llvh::SMRange", %"class.llvh::SMLoc" }
%"class.llvh::ilist_node" = type { %"class.llvh::ilist_node_impl" }
%"class.llvh::SmallVectorBase" = type { ptr, i32, i32 }
%"class.hermes::Value" = type { i8, %"class.hermes::Type", %"class.llvh::SmallVector" }
%"class.hermes::Type" = type { i16, i16 }
%"class.llvh::SmallVector" = type { %"class.llvh::SmallVectorImpl", %"struct.llvh::SmallVectorStorage" }
%"class.llvh::SmallVectorImpl" = type { %"class.llvh::SmallVectorTemplateBase" }
%"class.llvh::SmallVectorTemplateBase" = type { %"class.llvh::SmallVectorTemplateCommon" }
%"class.llvh::SmallVectorTemplateCommon" = type { %"class.llvh::SmallVectorBase" }
%"struct.llvh::SmallVectorStorage" = type { [2 x %"struct.llvh::AlignedCharArrayUnion"] }
%"struct.llvh::AlignedCharArrayUnion" = type { %"struct.llvh::AlignedCharArray" }
%"struct.llvh::AlignedCharArray" = type { [8 x i8] }
%"class.llvh::ilist_node_impl.13" = type { %"class.llvh::ilist_node_base" }
%"class.hermes::OptValue" = type <{ i32, i8, [3 x i8] }>
%"class.hermes::Function" = type { %"class.llvh::ilist_node_with_parent", %"class.hermes::Value", ptr, i8, ptr, %"class.llvh::iplist.110", %"class.llvh::SmallVector.120", %"class.hermes::Identifier", i32, i8, %"class.llvh::SMRange", i32, %"class.hermes::Identifier", ptr, i32, %"class.hermes::OptValue", [4 x i8], %"struct.hermes::LazySource", %"class.std::shared_ptr", ptr }
%"class.llvh::ilist_node_with_parent" = type { %"class.llvh::ilist_node.109" }
%"class.llvh::ilist_node.109" = type { %"class.llvh::ilist_node_impl.13" }
%"class.llvh::iplist.110" = type { %"class.llvh::iplist_impl.111" }
%"class.llvh::iplist_impl.111" = type { %"class.llvh::simple_ilist.116" }
%"class.llvh::simple_ilist.116" = type { %"class.llvh::ilist_sentinel.118" }
%"class.llvh::ilist_sentinel.118" = type { %"class.llvh::ilist_node_impl.119" }
%"class.llvh::ilist_node_impl.119" = type { %"class.llvh::ilist_node_base" }
%"class.llvh::SmallVector.120" = type { %"class.llvh::SmallVectorImpl.121", %"struct.llvh::SmallVectorStorage.124" }
%"class.llvh::SmallVectorImpl.121" = type { %"class.llvh::SmallVectorTemplateBase.122" }
%"class.llvh::SmallVectorTemplateBase.122" = type { %"class.llvh::SmallVectorTemplateCommon.123" }
%"class.llvh::SmallVectorTemplateCommon.123" = type { %"class.llvh::SmallVectorBase" }
%"struct.llvh::SmallVectorStorage.124" = type { [8 x %"struct.llvh::AlignedCharArrayUnion.125"] }
%"struct.llvh::AlignedCharArrayUnion.125" = type { %"struct.llvh::AlignedCharArray" }
%"struct.hermes::LazySource" = type <{ i32, i32, %"class.llvh::SMRange", i8, i8, [6 x i8] }>
%"class.hermes::BasicBlock" = type { %"class.llvh::ilist_node_with_parent.133", %"class.hermes::Value", %"class.llvh::iplist.135", ptr }
%"class.llvh::ilist_node_with_parent.133" = type { %"class.llvh::ilist_node.134" }
%"class.llvh::ilist_node.134" = type { %"class.llvh::ilist_node_impl.119" }
%"class.llvh::iplist.135" = type { %"class.llvh::iplist_impl.136" }
%"class.llvh::iplist_impl.136" = type { %"class.llvh::simple_ilist.141" }
%"class.llvh::simple_ilist.141" = type { %"class.llvh::ilist_sentinel.142" }
%"class.llvh::ilist_sentinel.142" = type { %"class.llvh::ilist_node_impl.143" }
%"class.llvh::ilist_node_impl.143" = type { %"class.llvh::ilist_node_base" }
%"class.llvh::ArrayRef" = type { ptr, i64 }
%"class.std::initializer_list" = type { ptr, i64 }
%"class.hermes::ESTree::ExportAllDeclarationNode" = type { %"class.hermes::ESTree::Node", ptr, ptr }

; Function Attrs: mustprogress nounwind uwtable
define linkonce_odr hidden noundef i64 @_ZNKSt16initializer_listIPN6hermes5ValueEE4sizeEv(ptr noundef nonnull align 8 dereferenceable(16) %this) #0 comdat align 2 {
entry:
  %this.addr = alloca ptr, align 8
  store ptr %this, ptr %this.addr, align 8
  %this1 = load ptr, ptr %this.addr, align 8
  %_M_len = getelementptr inbounds %"class.std::initializer_list", ptr %this1, i32 0, i32 1
  %0 = load i64, ptr %_M_len, align 8
  ret i64 %0
}

; Function Attrs: mustprogress nounwind uwtable
define linkonce_odr hidden noundef ptr @_ZNKSt16initializer_listIPN6hermes5ValueEE3endEv(ptr noundef nonnull align 8 dereferenceable(16) %this) #0 comdat align 2 {
entry:
  %this.addr = alloca ptr, align 8
  store ptr %this, ptr %this.addr, align 8
  %this1 = load ptr, ptr %this.addr, align 8
  %call = call noundef ptr @_ZNKSt16initializer_listIPN6hermes5ValueEE5beginEv(ptr noundef nonnull align 8 dereferenceable(16) %this1) #8
  %call2 = call noundef i64 @_ZNKSt16initializer_listIPN6hermes5ValueEE4sizeEv(ptr noundef nonnull align 8 dereferenceable(16) %this1) #8
  %add.ptr = getelementptr inbounds ptr, ptr %call, i64 %call2
  ret ptr %add.ptr
}

; Function Attrs: mustprogress nounwind uwtable
define linkonce_odr hidden noundef ptr @_ZNKSt16initializer_listIPN6hermes5ValueEE5beginEv(ptr noundef nonnull align 8 dereferenceable(16) %this) #0 comdat align 2 {
entry:
  %this.addr = alloca ptr, align 8
  store ptr %this, ptr %this.addr, align 8
  %this1 = load ptr, ptr %this.addr, align 8
  %_M_array = getelementptr inbounds %"class.std::initializer_list", ptr %this1, i32 0, i32 0
  %0 = load ptr, ptr %_M_array, align 8
  ret ptr %0
}

; Function Attrs: mustprogress nounwind uwtable
define linkonce_odr hidden noundef ptr @_ZNK6hermes10BasicBlock9getParentEv(ptr noundef nonnull align 8 dereferenceable(80) %this) #0 comdat align 2 {
entry:
  %this.addr = alloca ptr, align 8
  store ptr %this, ptr %this.addr, align 8
  %this1 = load ptr, ptr %this.addr, align 8
  %Parent = getelementptr inbounds %"class.hermes::BasicBlock", ptr %this1, i32 0, i32 3
  %0 = load ptr, ptr %Parent, align 8
  ret ptr %0
}

; Function Attrs: mustprogress nounwind uwtable
define linkonce_odr hidden void @_ZN4llvh8ArrayRefIPN6hermes5ValueEEC2ERKSt16initializer_listIS3_E(ptr noundef nonnull align 8 dereferenceable(16) %this, ptr noundef nonnull align 8 dereferenceable(16) %Vec) unnamed_addr #0 comdat align 2 {
entry:
  %this.addr = alloca ptr, align 8
  %Vec.addr = alloca ptr, align 8
  store ptr %this, ptr %this.addr, align 8
  store ptr %Vec, ptr %Vec.addr, align 8
  %this1 = load ptr, ptr %this.addr, align 8
  %Data = getelementptr inbounds %"class.llvh::ArrayRef", ptr %this1, i32 0, i32 0
  %0 = load ptr, ptr %Vec.addr, align 8
  %call = call noundef ptr @_ZNKSt16initializer_listIPN6hermes5ValueEE5beginEv(ptr noundef nonnull align 8 dereferenceable(16) %0) #8
  %1 = load ptr, ptr %Vec.addr, align 8
  %call2 = call noundef ptr @_ZNKSt16initializer_listIPN6hermes5ValueEE3endEv(ptr noundef nonnull align 8 dereferenceable(16) %1) #8
  %cmp = icmp eq ptr %call, %call2
  br i1 %cmp, label %cond.true, label %cond.false

cond.true:                                        ; preds = %entry
  br label %cond.end

cond.false:                                       ; preds = %entry
  %2 = load ptr, ptr %Vec.addr, align 8
  %call3 = call noundef ptr @_ZNKSt16initializer_listIPN6hermes5ValueEE5beginEv(ptr noundef nonnull align 8 dereferenceable(16) %2) #8
  br label %cond.end

cond.end:                                         ; preds = %cond.false, %cond.true
  %cond = phi ptr [ null, %cond.true ], [ %call3, %cond.false ]
  store ptr %cond, ptr %Data, align 8
  %Length = getelementptr inbounds %"class.llvh::ArrayRef", ptr %this1, i32 0, i32 1
  %3 = load ptr, ptr %Vec.addr, align 8
  %call4 = call noundef i64 @_ZNKSt16initializer_listIPN6hermes5ValueEE4sizeEv(ptr noundef nonnull align 8 dereferenceable(16) %3) #8
  store i64 %call4, ptr %Length, align 8
  ret void
}

; Function Attrs: mustprogress nounwind uwtable
define linkonce_odr hidden void @_ZN6hermes10IdentifierC2Ev(ptr noundef nonnull align 8 dereferenceable(8) %this) unnamed_addr #0 comdat align 2 {
entry:
  %this.addr = alloca ptr, align 8
  store ptr %this, ptr %this.addr, align 8
  %this1 = load ptr, ptr %this.addr, align 8
  %ptr_ = getelementptr inbounds %"class.hermes::Identifier", ptr %this1, i32 0, i32 0
  store ptr null, ptr %ptr_, align 8
  ret void
}

; Function Attrs: mustprogress nounwind uwtable
define linkonce_odr hidden noundef nonnull align 8 dereferenceable(80) ptr @_ZN6hermes8Function13getParametersEv(ptr noundef nonnull align 8 dereferenceable(304) %this) #0 comdat align 2 {
entry:
  %this.addr = alloca ptr, align 8
  store ptr %this, ptr %this.addr, align 8
  %this1 = load ptr, ptr %this.addr, align 8
  %Parameters = getelementptr inbounds %"class.hermes::Function", ptr %this1, i32 0, i32 6
  ret ptr %Parameters
}

; Function Attrs: mustprogress nounwind uwtable
define linkonce_odr hidden noundef ptr @_ZN6hermes9IRBuilder11getFunctionEv(ptr noundef nonnull align 8 dereferenceable(40) %this) #0 comdat align 2 {
entry:
  %this.addr = alloca ptr, align 8
  store ptr %this, ptr %this.addr, align 8
  %this1 = load ptr, ptr %this.addr, align 8
  %Block = getelementptr inbounds %"class.hermes::IRBuilder", ptr %this1, i32 0, i32 2
  %0 = load ptr, ptr %Block, align 8
  %call = call noundef ptr @_ZNK6hermes10BasicBlock9getParentEv(ptr noundef nonnull align 8 dereferenceable(80) %0)
  ret ptr %call
}

; Function Attrs: mustprogress nounwind uwtable
define hidden void @_ZN6hermes5irgen11ESTreeIRGen23genExportAllDeclarationEPNS_6ESTree24ExportAllDeclarationNodeE(ptr noundef nonnull align 8 dereferenceable(200) %this, ptr noundef %exportDecl) #0 align 2 {
entry:
  %this.addr.i30 = alloca ptr, align 8
  %this.addr.i28 = alloca ptr, align 8
  %this.addr.i23 = alloca ptr, align 8
  %idx.addr.i24 = alloca i64, align 8
  %this.addr.i = alloca ptr, align 8
  %idx.addr.i = alloca i64, align 8
  %this.addr = alloca ptr, align 8
  %exportDecl.addr = alloca ptr, align 8
  %exports = alloca ptr, align 8
  %require = alloca ptr, align 8
  %source = alloca ptr, align 8
  %agg.tmp = alloca %"class.llvh::ArrayRef", align 8
  %ref.tmp = alloca %"class.std::initializer_list", align 8
  %ref.tmp11 = alloca [1 x ptr], align 8
  %agg.tmp12 = alloca %"class.hermes::Identifier", align 8
  %agg.tmp15 = alloca %"class.llvh::ArrayRef", align 8
  %ref.tmp16 = alloca %"class.std::initializer_list", align 8
  %ref.tmp17 = alloca [2 x ptr], align 8
  store ptr %this, ptr %this.addr, align 8
  store ptr %exportDecl, ptr %exportDecl.addr, align 8
  %this1 = load ptr, ptr %this.addr, align 8
  %Builder = getelementptr inbounds %"class.hermes::irgen::ESTreeIRGen", ptr %this1, i32 0, i32 1
  %call = call noundef ptr @_ZN6hermes9IRBuilder11getFunctionEv(ptr noundef nonnull align 8 dereferenceable(40) %Builder)
  %call2 = call noundef nonnull align 8 dereferenceable(80) ptr @_ZN6hermes8Function13getParametersEv(ptr noundef nonnull align 8 dereferenceable(304) %call)
  store ptr %call2, ptr %this.addr.i23, align 8
  store i64 0, ptr %idx.addr.i24, align 8
  %this1.i25 = load ptr, ptr %this.addr.i23, align 8
  store ptr %this1.i25, ptr %this.addr.i28, align 8
  %this1.i29 = load ptr, ptr %this.addr.i28, align 8
  %0 = load ptr, ptr %this1.i29, align 8
  %1 = load i64, ptr %idx.addr.i24, align 8
  %arrayidx.i27 = getelementptr inbounds ptr, ptr %0, i64 %1
  %2 = load ptr, ptr %arrayidx.i27, align 8
  store ptr %2, ptr %exports, align 8
  %Builder4 = getelementptr inbounds %"class.hermes::irgen::ESTreeIRGen", ptr %this1, i32 0, i32 1
  %call5 = call noundef ptr @_ZN6hermes9IRBuilder11getFunctionEv(ptr noundef nonnull align 8 dereferenceable(40) %Builder4)
  %call6 = call noundef nonnull align 8 dereferenceable(80) ptr @_ZN6hermes8Function13getParametersEv(ptr noundef nonnull align 8 dereferenceable(304) %call5)
  store ptr %call6, ptr %this.addr.i, align 8
  store i64 1, ptr %idx.addr.i, align 8
  %this1.i = load ptr, ptr %this.addr.i, align 8
  store ptr %this1.i, ptr %this.addr.i30, align 8
  %this1.i31 = load ptr, ptr %this.addr.i30, align 8
  %3 = load ptr, ptr %this1.i31, align 8
  %4 = load i64, ptr %idx.addr.i, align 8
  %arrayidx.i = getelementptr inbounds ptr, ptr %3, i64 %4
  %5 = load ptr, ptr %arrayidx.i, align 8
  store ptr %5, ptr %require, align 8
  %Builder8 = getelementptr inbounds %"class.hermes::irgen::ESTreeIRGen", ptr %this1, i32 0, i32 1
  %6 = load ptr, ptr %require, align 8
  %Builder9 = getelementptr inbounds %"class.hermes::irgen::ESTreeIRGen", ptr %this1, i32 0, i32 1
  %call10 = call noundef ptr @_ZN6hermes9IRBuilder19getLiteralUndefinedEv(ptr noundef nonnull align 8 dereferenceable(40) %Builder9)
  %arrayinit.begin = getelementptr inbounds [1 x ptr], ptr %ref.tmp11, i64 0, i64 0
  %7 = load ptr, ptr %exportDecl.addr, align 8
  %_source = getelementptr inbounds %"class.hermes::ESTree::ExportAllDeclarationNode", ptr %7, i32 0, i32 1
  %8 = load ptr, ptr %_source, align 8
  call void @llvm.memset.p0.i64(ptr align 8 %agg.tmp12, i8 0, i64 8, i1 false)
  call void @_ZN6hermes10IdentifierC2Ev(ptr noundef nonnull align 8 dereferenceable(8) %agg.tmp12) #8
  %coerce.dive = getelementptr inbounds %"class.hermes::Identifier", ptr %agg.tmp12, i32 0, i32 0
  %9 = load ptr, ptr %coerce.dive, align 8
  %call13 = call noundef ptr @_ZN6hermes5irgen11ESTreeIRGen13genExpressionEPNS_6ESTree4NodeENS_10IdentifierE(ptr noundef nonnull align 8 dereferenceable(200) %this1, ptr noundef %8, ptr %9)
  store ptr %call13, ptr %arrayinit.begin, align 8
  %_M_array = getelementptr inbounds %"class.std::initializer_list", ptr %ref.tmp, i32 0, i32 0
  %arraystart = getelementptr inbounds [1 x ptr], ptr %ref.tmp11, i64 0, i64 0
  store ptr %arraystart, ptr %_M_array, align 8
  %_M_len = getelementptr inbounds %"class.std::initializer_list", ptr %ref.tmp, i32 0, i32 1
  store i64 1, ptr %_M_len, align 8
  call void @_ZN4llvh8ArrayRefIPN6hermes5ValueEEC2ERKSt16initializer_listIS3_E(ptr noundef nonnull align 8 dereferenceable(16) %agg.tmp, ptr noundef nonnull align 8 dereferenceable(16) %ref.tmp)
  %10 = getelementptr inbounds { ptr, i64 }, ptr %agg.tmp, i32 0, i32 0
  %11 = load ptr, ptr %10, align 8
  %12 = getelementptr inbounds { ptr, i64 }, ptr %agg.tmp, i32 0, i32 1
  %13 = load i64, ptr %12, align 8
  %call14 = call noundef ptr @_ZN6hermes9IRBuilder14createCallInstEPNS_13LiteralStringEPNS_5ValueES4_N4llvh8ArrayRefIS4_EE(ptr noundef nonnull align 8 dereferenceable(40) %Builder8, ptr noundef null, ptr noundef %6, ptr noundef %call10, ptr %11, i64 %13)
  store ptr %call14, ptr %source, align 8
  %arrayinit.begin18 = getelementptr inbounds [2 x ptr], ptr %ref.tmp17, i64 0, i64 0
  %14 = load ptr, ptr %exports, align 8
  store ptr %14, ptr %arrayinit.begin18, align 8
  %arrayinit.element = getelementptr inbounds ptr, ptr %arrayinit.begin18, i64 1
  %15 = load ptr, ptr %source, align 8
  %16 = icmp eq ptr %15, null
  br i1 %16, label %cast.end, label %cast.notnull

cast.notnull:                                     ; preds = %entry
  %add.ptr = getelementptr inbounds i8, ptr %15, i64 16
  br label %cast.end

cast.end:                                         ; preds = %cast.notnull, %entry
  %cast.result = phi ptr [ %add.ptr, %cast.notnull ], [ null, %entry ]
  store ptr %cast.result, ptr %arrayinit.element, align 8
  %_M_array19 = getelementptr inbounds %"class.std::initializer_list", ptr %ref.tmp16, i32 0, i32 0
  %arraystart20 = getelementptr inbounds [2 x ptr], ptr %ref.tmp17, i64 0, i64 0
  store ptr %arraystart20, ptr %_M_array19, align 8
  %_M_len21 = getelementptr inbounds %"class.std::initializer_list", ptr %ref.tmp16, i32 0, i32 1
  store i64 2, ptr %_M_len21, align 8
  call void @_ZN4llvh8ArrayRefIPN6hermes5ValueEEC2ERKSt16initializer_listIS3_E(ptr noundef nonnull align 8 dereferenceable(16) %agg.tmp15, ptr noundef nonnull align 8 dereferenceable(16) %ref.tmp16)
  %17 = getelementptr inbounds { ptr, i64 }, ptr %agg.tmp15, i32 0, i32 0
  %18 = load ptr, ptr %17, align 8
  %19 = getelementptr inbounds { ptr, i64 }, ptr %agg.tmp15, i32 0, i32 1
  %20 = load i64, ptr %19, align 8
  %call22 = call noundef ptr @_ZN6hermes5irgen11ESTreeIRGen14genBuiltinCallENS_13BuiltinMethod4EnumEN4llvh8ArrayRefIPNS_5ValueEEE(ptr noundef nonnull align 8 dereferenceable(200) %this1, i8 noundef zeroext 48, ptr %18, i64 %20)
  ret void
}