; Function Attrs: mustprogress nounwind uwtable
define hidden void @_ZN6hermes5irgen11ESTreeIRGen23genExportAllDeclarationEPNS_6ESTree24ExportAllDeclarationNodeE(ptr noundef nonnull align 8 dereferenceable(200) %this, ptr noundef readonly captures(none) %exportDecl) local_unnamed_addr #0 align 2 {
entry:
  %ref.tmp11 = alloca [1 x ptr], align 8
  %ref.tmp17 = alloca [2 x ptr], align 8
  %Builder = getelementptr inbounds nuw i8, ptr %this, i64 8
  %Block.i = getelementptr inbounds nuw i8, ptr %this, i64 24
  %0 = load ptr, ptr %Block.i, align 8
  %Parent.i.i = getelementptr inbounds nuw i8, ptr %0, i64 72
  %1 = load ptr, ptr %Parent.i.i, align 8
  %Parameters.i = getelementptr inbounds nuw i8, ptr %1, i64 96
  %2 = load ptr, ptr %Parameters.i, align 8
  %3 = load ptr, ptr %2, align 8
  %arrayidx.i = getelementptr inbounds nuw i8, ptr %2, i64 8
  %4 = load ptr, ptr %arrayidx.i, align 8
  %call10 = tail call noundef ptr @_ZN6hermes9IRBuilder19getLiteralUndefinedEv(ptr noundef nonnull align 8 dereferenceable(40) %Builder) #8
  %_source = getelementptr inbounds nuw i8, ptr %exportDecl, i64 48
  %5 = load ptr, ptr %_source, align 8
  %call13 = tail call noundef ptr @_ZN6hermes5irgen11ESTreeIRGen13genExpressionEPNS_6ESTree4NodeENS_10IdentifierE(ptr noundef nonnull align 8 dereferenceable(200) %this, ptr noundef %5, ptr null) #8
  store ptr %call13, ptr %ref.tmp11, align 8
  %call14 = call noundef ptr @_ZN6hermes9IRBuilder14createCallInstEPNS_13LiteralStringEPNS_5ValueES4_N4llvh8ArrayRefIS4_EE(ptr noundef nonnull align 8 dereferenceable(40) %Builder, ptr noundef null, ptr noundef %4, ptr noundef %call10, ptr nonnull %ref.tmp11, i64 1) #8
  store ptr %3, ptr %ref.tmp17, align 8
  %arrayinit.element = getelementptr inbounds nuw i8, ptr %ref.tmp17, i64 8
  %6 = icmp eq ptr %call14, null
  %add.ptr = getelementptr inbounds nuw i8, ptr %call14, i64 16
  %spec.select = select i1 %6, ptr null, ptr %add.ptr
  store ptr %spec.select, ptr %arrayinit.element, align 8
  %call22 = call noundef ptr @_ZN6hermes5irgen11ESTreeIRGen14genBuiltinCallENS_13BuiltinMethod4EnumEN4llvh8ArrayRefIPNS_5ValueEEE(ptr noundef nonnull align 8 dereferenceable(200) %this, i8 noundef zeroext 48, ptr nonnull %ref.tmp17, i64 2) #8
  ret void
}